target datalayout = "e-m:e-p270:32:32-p271:32:32-p272:64:64-i64:64-i128:128-f80:128-n8:16:32:64-S128"
target triple = "x86_64-unknown-linux-gnu"

%"class.net::TcpCubicSenderPackets" = type { %"class.net::TcpCubicSenderBase.base", %"class.net::Cubic", i64, i64, i64, i64, i64, i64, i64, i64 }
%"class.net::TcpCubicSenderBase.base" = type <{ %"class.net::SendAlgorithmInterface", %"class.net::HybridSlowStart", %"class.net::PrrSender", ptr, ptr, i8, [3 x i8], i32, i64, i64, i64, i8, i8, i8, i8, i8 }>
%"class.net::SendAlgorithmInterface" = type { ptr }
%"class.net::HybridSlowStart" = type { i8, i32, i64, i64, i32, %"class.net::QuicTime::Delta" }
%"class.net::QuicTime::Delta" = type { %"class.base::TimeDelta", i64 }
%"class.base::TimeDelta" = type { i64 }
%"class.net::PrrSender" = type { i64, i64, i64, i64 }
%"class.net::Cubic" = type { ptr, i32, %"class.net::QuicTime", %"class.net::QuicTime", %"class.net::QuicTime", i64, i64, i64, i64, i64, i32, i64 }
%"class.net::QuicTime" = type { i64 }
%"class.net::TcpCubicSenderBase" = type <{ %"class.net::SendAlgorithmInterface", %"class.net::HybridSlowStart", %"class.net::PrrSender", ptr, ptr, i8, [3 x i8], i32, i64, i64, i64, i8, i8, i8, i8, i8, [3 x i8] }>
%"class.logging::LogMessage" = type <{ i32, [4 x i8], %"class.std::__cxx11::basic_ostringstream", i64, ptr, i32, [4 x i8] }>
%"class.std::__cxx11::basic_ostringstream" = type { %"class.std::basic_ostream.base", %"class.std::__cxx11::basic_stringbuf", %"class.std::basic_ios" }
%"class.std::basic_ostream.base" = type { ptr }
%"class.std::__cxx11::basic_stringbuf" = type { %"class.std::basic_streambuf", i32, %"class.std::__cxx11::basic_string" }
%"class.std::basic_streambuf" = type { ptr, ptr, ptr, ptr, ptr, ptr, ptr, %"class.std::locale" }
%"class.std::locale" = type { ptr }
%"class.std::__cxx11::basic_string" = type { %"struct.std::__cxx11::basic_string<char>::_Alloc_hider", i64, %union.anon }
%"struct.std::__cxx11::basic_string<char>::_Alloc_hider" = type { ptr }
%union.anon = type { i64, [8 x i8] }
%"class.std::basic_ios" = type { %"class.std::ios_base", ptr, i8, i8, ptr, ptr, ptr, ptr }
%"class.std::ios_base" = type { ptr, i64, i64, i32, i32, i32, ptr, %"struct.std::ios_base::_Words", [8 x %"struct.std::ios_base::_Words"], i32, ptr, %"class.std::locale" }
%"struct.std::ios_base::_Words" = type { ptr, i64 }
%"class.logging::LogMessageVoidify" = type { i8 }
%"class.net::RttStats" = type { %"class.net::QuicTime::Delta", %"class.net::QuicTime::Delta", %"class.net::QuicTime::Delta", %"class.net::QuicTime::Delta", %"class.net::QuicTime::Delta", i64, %"class.net::QuicTime::Delta", %"class.net::QuicTime", i32, %"class.net::WindowedFilter" }
%"class.net::WindowedFilter" = type { %"class.net::QuicTime::Delta", %"class.net::QuicTime::Delta", [3 x %"struct.net::WindowedFilter<net::QuicTime::Delta, net::MinFilter<net::QuicTime::Delta>, net::QuicTime, net::QuicTime::Delta>::Sample"] }
%"struct.net::WindowedFilter<net::QuicTime::Delta, net::MinFilter<net::QuicTime::Delta>, net::QuicTime, net::QuicTime::Delta>::Sample" = type { %"class.net::QuicTime::Delta", %"class.net::QuicTime" }

@.str = private unnamed_addr constant [158 x i8] c"generated/home/dtcxzyw/WorkSpace/Projects/compilers/llvm-opt-benchmark/bench/libquic/libquic/src/net/quic/core/congestion_control/tcp_cubic_sender_packets.cc\00", align 1
@.str.1 = private unnamed_addr constant [41 x i8] c"Never increase the CWND during recovery.\00", align 1

; Function Attrs: mustprogress nounwind uwtable
define linkonce_odr dso_local noundef nonnull align 8 dereferenceable(8) ptr @_ZSt3minImERKT_S2_S2_(ptr noundef nonnull align 8 dereferenceable(8) %__a, ptr noundef nonnull align 8 dereferenceable(8) %__b) #3 comdat {
entry:
  %retval = alloca ptr, align 8
  %__a.addr = alloca ptr, align 8
  %__b.addr = alloca ptr, align 8
  store ptr %__a, ptr %__a.addr, align 8
  store ptr %__b, ptr %__b.addr, align 8
  %0 = load ptr, ptr %__b.addr, align 8
  %1 = load i64, ptr %0, align 8
  %2 = load ptr, ptr %__a.addr, align 8
  %3 = load i64, ptr %2, align 8
  %cmp = icmp ult i64 %1, %3
  br i1 %cmp, label %if.then, label %if.end

if.then:                                          ; preds = %entry
  %4 = load ptr, ptr %__b.addr, align 8
  store ptr %4, ptr %retval, align 8
  br label %return

if.end:                                           ; preds = %entry
  %5 = load ptr, ptr %__a.addr, align 8
  store ptr %5, ptr %retval, align 8
  br label %return

return:                                           ; preds = %if.end, %if.then
  %6 = load ptr, ptr %retval, align 8
  ret ptr %6
}

; Function Attrs: mustprogress nounwind uwtable
define linkonce_odr dso_local { i64, i64 } @_ZNK3net8RttStats7min_rttEv(ptr noundef nonnull align 8 dereferenceable(224) %this) #3 comdat align 2 {
entry:
  %retval = alloca %"class.net::QuicTime::Delta", align 8
  %this.addr = alloca ptr, align 8
  store ptr %this, ptr %this.addr, align 8
  %this1 = load ptr, ptr %this.addr, align 8
  %min_rtt_ = getelementptr inbounds %"class.net::RttStats", ptr %this1, i32 0, i32 1
  call void @llvm.memcpy.p0.p0.i64(ptr align 8 %retval, ptr align 8 %min_rtt_, i64 16, i1 false)
  %0 = load { i64, i64 }, ptr %retval, align 8
  ret { i64, i64 } %0
}

; Function Attrs: mustprogress nounwind uwtable
define linkonce_odr dso_local void @_ZN7logging17LogMessageVoidifyanERSo(ptr noundef nonnull align 1 dereferenceable(1) %this, ptr noundef nonnull align 8 dereferenceable(8) %0) #3 comdat align 2 {
entry:
  %this.addr = alloca ptr, align 8
  %.addr = alloca ptr, align 8
  store ptr %this, ptr %this.addr, align 8
  store ptr %0, ptr %.addr, align 8
  ret void
}

; Function Attrs: mustprogress nounwind uwtable
define linkonce_odr dso_local noundef nonnull align 8 dereferenceable(8) ptr @_ZN7logging10LogMessage6streamEv(ptr noundef nonnull align 8 dereferenceable(404) %this) #3 comdat align 2 {
entry:
  %this.addr = alloca ptr, align 8
  store ptr %this, ptr %this.addr, align 8
  %this1 = load ptr, ptr %this.addr, align 8
  %stream_ = getelementptr inbounds %"class.logging::LogMessage", ptr %this1, i32 0, i32 2
  ret ptr %stream_
}

; Function Attrs: mustprogress nounwind uwtable
define linkonce_odr dso_local void @_ZN7logging17LogMessageVoidifyC2Ev(ptr noundef nonnull align 1 dereferenceable(1) %this) unnamed_addr #3 comdat align 2 {
entry:
  %this.addr = alloca ptr, align 8
  store ptr %this, ptr %this.addr, align 8
  ret void
}

; Function Attrs: mustprogress uwtable
define dso_local void @_ZN3net21TcpCubicSenderPackets17MaybeIncreaseCwndEmmm(ptr noundef nonnull align 8 dereferenceable(304) %this, i64 noundef %acked_packet_number, i64 noundef %0, i64 noundef %bytes_in_flight) unnamed_addr #0 align 2 personality ptr @__gxx_personality_v0 {
entry:
  %this.addr = alloca ptr, align 8
  %acked_packet_number.addr = alloca i64, align 8
  %.addr = alloca i64, align 8
  %bytes_in_flight.addr = alloca i64, align 8
  %ref.tmp = alloca %"class.logging::LogMessageVoidify", align 1
  %ref.tmp3 = alloca %"class.logging::LogMessage", align 8
  %cleanup.cond = alloca i1, align 1
  %exn.slot = alloca ptr, align 8
  %ehselector.slot = alloca i32, align 4
  %ref.tmp31 = alloca i64, align 8
  %agg.tmp = alloca %"class.net::QuicTime::Delta", align 8
  store ptr %this, ptr %this.addr, align 8
  store i64 %acked_packet_number, ptr %acked_packet_number.addr, align 8
  store i64 %0, ptr %.addr, align 8
  store i64 %bytes_in_flight, ptr %bytes_in_flight.addr, align 8
  %this1 = load ptr, ptr %this.addr, align 8
  %call = call noundef zeroext i1 @_ZN7logging22ShouldCreateLogMessageEi(i32 noundef 2)
  store i1 false, ptr %cleanup.cond, align 1
  br i1 %call, label %land.lhs.true, label %cond.true

land.lhs.true:                                    ; preds = %entry
  %vtable = load ptr, ptr %this1, align 8
  %vfn = getelementptr inbounds ptr, ptr %vtable, i64 14
  %1 = load ptr, ptr %vfn, align 8
  %call2 = call noundef zeroext i1 %1(ptr noundef nonnull align 8 dereferenceable(141) %this1)
  br i1 %call2, label %cond.false, label %cond.true

cond.true:                                        ; preds = %land.lhs.true, %entry
  br label %cond.end

cond.false:                                       ; preds = %land.lhs.true
  call void @_ZN7logging17LogMessageVoidifyC2Ev(ptr noundef nonnull align 1 dereferenceable(1) %ref.tmp)
  call void @_ZN7logging10LogMessageC1EPKcii(ptr noundef nonnull align 8 dereferenceable(404) %ref.tmp3, ptr noundef @.str, i32 noundef 159, i32 noundef 2)
  store i1 true, ptr %cleanup.cond, align 1
  %call4 = invoke noundef nonnull align 8 dereferenceable(8) ptr @_ZN7logging10LogMessage6streamEv(ptr noundef nonnull align 8 dereferenceable(404) %ref.tmp3)
          to label %invoke.cont unwind label %lpad

invoke.cont:                                      ; preds = %cond.false
  %call6 = invoke noundef nonnull align 8 dereferenceable(8) ptr @_ZStlsISt11char_traitsIcEERSt13basic_ostreamIcT_ES5_PKc(ptr noundef nonnull align 8 dereferenceable(8) %call4, ptr noundef @.str.1)
          to label %invoke.cont5 unwind label %lpad

invoke.cont5:                                     ; preds = %invoke.cont
  invoke void @_ZN7logging17LogMessageVoidifyanERSo(ptr noundef nonnull align 1 dereferenceable(1) %ref.tmp, ptr noundef nonnull align 8 dereferenceable(8) %call6)
          to label %invoke.cont7 unwind label %lpad

invoke.cont7:                                     ; preds = %invoke.cont5
  br label %cond.end

cond.end:                                         ; preds = %invoke.cont7, %cond.true
  %cleanup.is_active = load i1, ptr %cleanup.cond, align 1
  br i1 %cleanup.is_active, label %cleanup.action, label %cleanup.done

cleanup.action:                                   ; preds = %cond.end
  call void @_ZN7logging10LogMessageD1Ev(ptr noundef nonnull align 8 dereferenceable(404) %ref.tmp3) #6
  br label %cleanup.done

cleanup.done:                                     ; preds = %cleanup.action, %cond.end
  %2 = load i64, ptr %bytes_in_flight.addr, align 8
  %call11 = call noundef zeroext i1 @_ZNK3net18TcpCubicSenderBase13IsCwndLimitedEm(ptr noundef nonnull align 8 dereferenceable(141) %this1, i64 noundef %2)
  br i1 %call11, label %if.end, label %if.then

if.then:                                          ; preds = %cleanup.done
  %cubic_ = getelementptr inbounds %"class.net::TcpCubicSenderPackets", ptr %this1, i32 0, i32 1
  call void @_ZN3net5Cubic20OnApplicationLimitedEv(ptr noundef nonnull align 8 dereferenceable(96) %cubic_)
  br label %if.end38

lpad:                                             ; preds = %invoke.cont5, %invoke.cont, %cond.false
  %3 = landingpad { ptr, i32 }
          cleanup
  %4 = extractvalue { ptr, i32 } %3, 0
  store ptr %4, ptr %exn.slot, align 8
  %5 = extractvalue { ptr, i32 } %3, 1
  store i32 %5, ptr %ehselector.slot, align 4
  %cleanup.is_active8 = load i1, ptr %cleanup.cond, align 1
  br i1 %cleanup.is_active8, label %cleanup.action9, label %cleanup.done10

cleanup.action9:                                  ; preds = %lpad
  call void @_ZN7logging10LogMessageD1Ev(ptr noundef nonnull align 8 dereferenceable(404) %ref.tmp3) #6
  br label %cleanup.done10

cleanup.done10:                                   ; preds = %cleanup.action9, %lpad
  br label %eh.resume

if.end:                                           ; preds = %cleanup.done
  %congestion_window_ = getelementptr inbounds %"class.net::TcpCubicSenderPackets", ptr %this1, i32 0, i32 3
  %6 = load i64, ptr %congestion_window_, align 8
  %max_tcp_congestion_window_ = getelementptr inbounds %"class.net::TcpCubicSenderPackets", ptr %this1, i32 0, i32 6
  %7 = load i64, ptr %max_tcp_congestion_window_, align 8
  %cmp = icmp uge i64 %6, %7
  br i1 %cmp, label %if.then12, label %if.end13

if.then12:                                        ; preds = %if.end
  br label %if.end38

if.end13:                                         ; preds = %if.end
  %vtable14 = load ptr, ptr %this1, align 8
  %vfn15 = getelementptr inbounds ptr, ptr %vtable14, i64 13
  %8 = load ptr, ptr %vfn15, align 8
  %call16 = call noundef zeroext i1 %8(ptr noundef nonnull align 8 dereferenceable(141) %this1)
  br i1 %call16, label %if.then17, label %if.end19

if.then17:                                        ; preds = %if.end13
  %congestion_window_18 = getelementptr inbounds %"class.net::TcpCubicSenderPackets", ptr %this1, i32 0, i32 3
  %9 = load i64, ptr %congestion_window_18, align 8
  %inc = add i64 %9, 1
  store i64 %inc, ptr %congestion_window_18, align 8
  br label %if.end38

if.end19:                                         ; preds = %if.end13
  %reno_ = getelementptr inbounds %"class.net::TcpCubicSenderBase", ptr %this1, i32 0, i32 5
  %10 = load i8, ptr %reno_, align 8
  %tobool = trunc i8 %10 to i1
  br i1 %tobool, label %if.then20, label %if.else

if.then20:                                        ; preds = %if.end19
  %congestion_window_count_ = getelementptr inbounds %"class.net::TcpCubicSenderPackets", ptr %this1, i32 0, i32 2
  %11 = load i64, ptr %congestion_window_count_, align 8
  %inc21 = add i64 %11, 1
  store i64 %inc21, ptr %congestion_window_count_, align 8
  %congestion_window_count_22 = getelementptr inbounds %"class.net::TcpCubicSenderPackets", ptr %this1, i32 0, i32 2
  %12 = load i64, ptr %congestion_window_count_22, align 8
  %num_connections_ = getelementptr inbounds %"class.net::TcpCubicSenderBase", ptr %this1, i32 0, i32 7
  %13 = load i32, ptr %num_connections_, align 4
  %conv = zext i32 %13 to i64
  %mul = mul i64 %12, %conv
  %congestion_window_23 = getelementptr inbounds %"class.net::TcpCubicSenderPackets", ptr %this1, i32 0, i32 3
  %14 = load i64, ptr %congestion_window_23, align 8
  %cmp24 = icmp uge i64 %mul, %14
  br i1 %cmp24, label %if.then25, label %if.end29

if.then25:                                        ; preds = %if.then20
  %congestion_window_26 = getelementptr inbounds %"class.net::TcpCubicSenderPackets", ptr %this1, i32 0, i32 3
  %15 = load i64, ptr %congestion_window_26, align 8
  %inc27 = add i64 %15, 1
  store i64 %inc27, ptr %congestion_window_26, align 8
  %congestion_window_count_28 = getelementptr inbounds %"class.net::TcpCubicSenderPackets", ptr %this1, i32 0, i32 2
  store i64 0, ptr %congestion_window_count_28, align 8
  br label %if.end29

if.end29:                                         ; preds = %if.then25, %if.then20
  br label %if.end38

if.else:                                          ; preds = %if.end19
  %max_tcp_congestion_window_30 = getelementptr inbounds %"class.net::TcpCubicSenderPackets", ptr %this1, i32 0, i32 6
  %cubic_32 = getelementptr inbounds %"class.net::TcpCubicSenderPackets", ptr %this1, i32 0, i32 1
  %congestion_window_33 = getelementptr inbounds %"class.net::TcpCubicSenderPackets", ptr %this1, i32 0, i32 3
  %16 = load i64, ptr %congestion_window_33, align 8
  %rtt_stats_ = getelementptr inbounds %"class.net::TcpCubicSenderBase", ptr %this1, i32 0, i32 3
  %17 = load ptr, ptr %rtt_stats_, align 8
  %call34 = call { i64, i64 } @_ZNK3net8RttStats7min_rttEv(ptr noundef nonnull align 8 dereferenceable(224) %17)
  %18 = getelementptr inbounds { i64, i64 }, ptr %agg.tmp, i32 0, i32 0
  %19 = extractvalue { i64, i64 } %call34, 0
  store i64 %19, ptr %18, align 8
  %20 = getelementptr inbounds { i64, i64 }, ptr %agg.tmp, i32 0, i32 1
  %21 = extractvalue { i64, i64 } %call34, 1
  store i64 %21, ptr %20, align 8
  %22 = getelementptr inbounds { i64, i64 }, ptr %agg.tmp, i32 0, i32 0
  %23 = load i64, ptr %22, align 8
  %24 = getelementptr inbounds { i64, i64 }, ptr %agg.tmp, i32 0, i32 1
  %25 = load i64, ptr %24, align 8
  %call35 = call noundef i64 @_ZN3net5Cubic24CongestionWindowAfterAckEmNS_8QuicTime5DeltaE(ptr noundef nonnull align 8 dereferenceable(96) %cubic_32, i64 noundef %16, i64 %23, i64 %25)
  store i64 %call35, ptr %ref.tmp31, align 8
  %call36 = call noundef nonnull align 8 dereferenceable(8) ptr @_ZSt3minImERKT_S2_S2_(ptr noundef nonnull align 8 dereferenceable(8) %max_tcp_congestion_window_30, ptr noundef nonnull align 8 dereferenceable(8) %ref.tmp31)
  %26 = load i64, ptr %call36, align 8
  %congestion_window_37 = getelementptr inbounds %"class.net::TcpCubicSenderPackets", ptr %this1, i32 0, i32 3
  store i64 %26, ptr %congestion_window_37, align 8
  br label %if.end38

if.end38:                                         ; preds = %if.else, %if.end29, %if.then17, %if.then12, %if.then
  ret void

eh.resume:                                        ; preds = %cleanup.done10
  %exn = load ptr, ptr %exn.slot, align 8
  %sel = load i32, ptr %ehselector.slot, align 4
  %lpad.val = insertvalue { ptr, i32 } poison, ptr %exn, 0
  %lpad.val39 = insertvalue { ptr, i32 } %lpad.val, i32 %sel, 1
  resume { ptr, i32 } %lpad.val39
}