; Function Attrs: mustprogress uwtable
define dso_local void @_ZN3net21TcpCubicSenderPackets17MaybeIncreaseCwndEmmm(ptr noundef nonnull align 8 dereferenceable(304) %this, i64 %acked_packet_number, i64 %0, i64 noundef %bytes_in_flight) unnamed_addr #0 align 2 personality ptr @__gxx_personality_v0 {
entry:
  %ref.tmp3 = alloca %"class.logging::LogMessage", align 8
  %call = tail call noundef zeroext i1 @_ZN7logging22ShouldCreateLogMessageEi(i32 noundef 2)
  br i1 %call, label %land.lhs.true, label %cleanup.done

land.lhs.true:                                    ; preds = %entry
  %vtable = load ptr, ptr %this, align 8
  %vfn = getelementptr inbounds i8, ptr %vtable, i64 112
  %1 = load ptr, ptr %vfn, align 8
  %call2 = tail call noundef zeroext i1 %1(ptr noundef nonnull align 8 dereferenceable(141) %this)
  br i1 %call2, label %cond.false, label %cleanup.done

cond.false:                                       ; preds = %land.lhs.true
  call void @_ZN7logging10LogMessageC1EPKcii(ptr noundef nonnull align 8 dereferenceable(404) %ref.tmp3, ptr noundef nonnull @.str, i32 noundef 159, i32 noundef 2)
  %stream_.i = getelementptr inbounds i8, ptr %ref.tmp3, i64 8
  %call6 = invoke noundef nonnull align 8 dereferenceable(8) ptr @_ZStlsISt11char_traitsIcEERSt13basic_ostreamIcT_ES5_PKc(ptr noundef nonnull align 8 dereferenceable(8) %stream_.i, ptr noundef nonnull @.str.1)
          to label %invoke.cont5 unwind label %lpad

invoke.cont5:                                     ; preds = %cond.false
  call void @_ZN7logging10LogMessageD1Ev(ptr noundef nonnull align 8 dereferenceable(404) %ref.tmp3) #9
  br label %cleanup.done

cleanup.done:                                     ; preds = %land.lhs.true, %entry, %invoke.cont5
  %call11 = call noundef zeroext i1 @_ZNK3net18TcpCubicSenderBase13IsCwndLimitedEm(ptr noundef nonnull align 8 dereferenceable(141) %this, i64 noundef %bytes_in_flight)
  br i1 %call11, label %if.end, label %if.then

if.then:                                          ; preds = %cleanup.done
  %cubic_ = getelementptr inbounds i8, ptr %this, i64 144
  call void @_ZN3net5Cubic20OnApplicationLimitedEv(ptr noundef nonnull align 8 dereferenceable(96) %cubic_)
  br label %if.end38

lpad:                                             ; preds = %cond.false
  %2 = landingpad { ptr, i32 }
          cleanup
  call void @_ZN7logging10LogMessageD1Ev(ptr noundef nonnull align 8 dereferenceable(404) %ref.tmp3) #9
  resume { ptr, i32 } %2

if.end:                                           ; preds = %cleanup.done
  %congestion_window_ = getelementptr inbounds i8, ptr %this, i64 248
  %3 = load i64, ptr %congestion_window_, align 8
  %max_tcp_congestion_window_ = getelementptr inbounds i8, ptr %this, i64 272
  %4 = load i64, ptr %max_tcp_congestion_window_, align 8
  %cmp.not = icmp ult i64 %3, %4
  br i1 %cmp.not, label %if.end13, label %if.end38

if.end13:                                         ; preds = %if.end
  %vtable14 = load ptr, ptr %this, align 8
  %vfn15 = getelementptr inbounds i8, ptr %vtable14, i64 104
  %5 = load ptr, ptr %vfn15, align 8
  %call16 = call noundef zeroext i1 %5(ptr noundef nonnull align 8 dereferenceable(141) %this)
  br i1 %call16, label %if.then17, label %if.end19

if.then17:                                        ; preds = %if.end13
  %6 = load i64, ptr %congestion_window_, align 8
  %inc = add i64 %6, 1
  store i64 %inc, ptr %congestion_window_, align 8
  br label %if.end38

if.end19:                                         ; preds = %if.end13
  %reno_ = getelementptr inbounds i8, ptr %this, i64 104
  %7 = load i8, ptr %reno_, align 8
  %8 = and i8 %7, 1
  %tobool.not = icmp eq i8 %8, 0
  br i1 %tobool.not, label %if.else, label %if.then20

if.then20:                                        ; preds = %if.end19
  %congestion_window_count_ = getelementptr inbounds i8, ptr %this, i64 240
  %9 = load i64, ptr %congestion_window_count_, align 8
  %inc21 = add i64 %9, 1
  store i64 %inc21, ptr %congestion_window_count_, align 8
  %num_connections_ = getelementptr inbounds i8, ptr %this, i64 108
  %10 = load i32, ptr %num_connections_, align 4
  %conv = zext i32 %10 to i64
  %mul = mul i64 %inc21, %conv
  %11 = load i64, ptr %congestion_window_, align 8
  %cmp24.not = icmp ult i64 %mul, %11
  br i1 %cmp24.not, label %if.end38, label %if.then25

if.then25:                                        ; preds = %if.then20
  %inc27 = add i64 %11, 1
  store i64 %inc27, ptr %congestion_window_, align 8
  store i64 0, ptr %congestion_window_count_, align 8
  br label %if.end38

if.else:                                          ; preds = %if.end19
  %cubic_32 = getelementptr inbounds i8, ptr %this, i64 144
  %12 = load i64, ptr %congestion_window_, align 8
  %rtt_stats_ = getelementptr inbounds i8, ptr %this, i64 88
  %13 = load ptr, ptr %rtt_stats_, align 8
  %min_rtt_.i = getelementptr inbounds i8, ptr %13, i64 16
  %retval.sroa.0.0.copyload.i = load i64, ptr %min_rtt_.i, align 8
  %retval.sroa.2.0.min_rtt_.sroa_idx.i = getelementptr inbounds i8, ptr %13, i64 24
  %retval.sroa.2.0.copyload.i = load i64, ptr %retval.sroa.2.0.min_rtt_.sroa_idx.i, align 8
  %call35 = call noundef i64 @_ZN3net5Cubic24CongestionWindowAfterAckEmNS_8QuicTime5DeltaE(ptr noundef nonnull align 8 dereferenceable(96) %cubic_32, i64 noundef %12, i64 %retval.sroa.0.0.copyload.i, i64 %retval.sroa.2.0.copyload.i)
  %14 = load i64, ptr %max_tcp_congestion_window_, align 8
  %.sroa.speculated = call i64 @llvm.umin.i64(i64 %call35, i64 %14)
  store i64 %.sroa.speculated, ptr %congestion_window_, align 8
  br label %if.end38

if.end38:                                         ; preds = %if.then20, %if.then25, %if.end, %if.else, %if.then17, %if.then
  ret void
}